; ModuleID = 'source-C-CXX/3/2174.c'
source_filename = "source-C-CXX/3/2174.c"
target datalayout = "e-m:e-p270:32:32-p271:32:32-p272:64:64-i64:64-f80:128-n8:16:32:64-S128"
target triple = "x86_64-pc-linux-gnu"

@.str = private unnamed_addr constant [5 x i8] c"%d%d\00", align 1
@.str.1 = private unnamed_addr constant [3 x i8] c"%d\00", align 1
@.str.2 = private unnamed_addr constant [4 x i8] c"%d\0A\00", align 1

; Function Attrs: nofree nounwind sspstrong uwtable
define dso_local i32 @main() local_unnamed_addr #0 {
  %1 = alloca i32, align 4
  %2 = alloca i32, align 4
  %3 = alloca [100 x [100 x i32]], align 16
  %4 = bitcast i32* %1 to i8*
  call void @llvm.lifetime.start.p0i8(i64 4, i8* nonnull %4) #3
  %5 = bitcast i32* %2 to i8*
  call void @llvm.lifetime.start.p0i8(i64 4, i8* nonnull %5) #3
  %6 = call i32 (i8*, ...) @__isoc99_scanf(i8* getelementptr inbounds ([5 x i8], [5 x i8]* @.str, i64 0, i64 0), i32* nonnull %1, i32* nonnull %2)
  %7 = bitcast [100 x [100 x i32]]* %3 to i8*
  call void @llvm.lifetime.start.p0i8(i64 40000, i8* nonnull %7) #3
  %8 = load i32, i32* %1, align 4, !tbaa !5
  %9 = icmp sgt i32 %8, 0
  %10 = load i32, i32* %2, align 4, !tbaa !5
  br i1 %9, label %11, label %18

11:                                               ; preds = %0
  %12 = icmp sgt i32 %10, 0
  br i1 %12, label %13, label %43

13:                                               ; preds = %11, %32
  %14 = phi i32 [ %33, %32 ], [ %8, %11 ]
  %15 = phi i32 [ %34, %32 ], [ %10, %11 ]
  %16 = phi i64 [ %35, %32 ], [ 0, %11 ]
  %17 = icmp sgt i32 %15, 0
  br i1 %17, label %22, label %32

18:                                               ; preds = %32, %0
  %19 = phi i32 [ %8, %0 ], [ %33, %32 ]
  %20 = phi i32 [ %10, %0 ], [ %34, %32 ]
  %21 = icmp sgt i32 %20, 0
  br i1 %21, label %38, label %43

22:                                               ; preds = %13, %22
  %23 = phi i64 [ %26, %22 ], [ 0, %13 ]
  %24 = getelementptr inbounds [100 x [100 x i32]], [100 x [100 x i32]]* %3, i64 0, i64 %16, i64 %23
  %25 = call i32 (i8*, ...) @__isoc99_scanf(i8* getelementptr inbounds ([3 x i8], [3 x i8]* @.str.1, i64 0, i64 0), i32* nonnull %24)
  %26 = add nuw nsw i64 %23, 1
  %27 = load i32, i32* %2, align 4, !tbaa !5
  %28 = sext i32 %27 to i64
  %29 = icmp slt i64 %26, %28
  br i1 %29, label %22, label %30, !llvm.loop !9

30:                                               ; preds = %22
  %31 = load i32, i32* %1, align 4, !tbaa !5
  br label %32

32:                                               ; preds = %30, %13
  %33 = phi i32 [ %31, %30 ], [ %14, %13 ]
  %34 = phi i32 [ %27, %30 ], [ %15, %13 ]
  %35 = add nuw nsw i64 %16, 1
  %36 = sext i32 %33 to i64
  %37 = icmp slt i64 %35, %36
  br i1 %37, label %13, label %18, !llvm.loop !11

38:                                               ; preds = %18, %64
  %39 = phi i64 [ %65, %64 ], [ 0, %18 ]
  %40 = phi i64 [ %69, %64 ], [ 1, %18 ]
  br label %51

41:                                               ; preds = %64
  %42 = load i32, i32* %1, align 4, !tbaa !5
  br label %43

43:                                               ; preds = %11, %41, %18
  %44 = phi i32 [ %19, %18 ], [ %42, %41 ], [ %8, %11 ]
  %45 = phi i32 [ %20, %18 ], [ %66, %41 ], [ %10, %11 ]
  %46 = add i32 %44, -1
  %47 = add i32 %46, %45
  %48 = icmp slt i32 %45, %47
  br i1 %48, label %49, label %101

49:                                               ; preds = %43
  %50 = sext i32 %45 to i64
  br label %70

51:                                               ; preds = %38, %61
  %52 = phi i64 [ 0, %38 ], [ %62, %61 ]
  %53 = load i32, i32* %1, align 4, !tbaa !5
  %54 = sext i32 %53 to i64
  %55 = icmp slt i64 %52, %54
  br i1 %55, label %56, label %61

56:                                               ; preds = %51
  %57 = sub nsw i64 %39, %52
  %58 = getelementptr inbounds [100 x [100 x i32]], [100 x [100 x i32]]* %3, i64 0, i64 %52, i64 %57
  %59 = load i32, i32* %58, align 4, !tbaa !5
  %60 = call i32 (i8*, ...) @printf(i8* nonnull dereferenceable(1) getelementptr inbounds ([4 x i8], [4 x i8]* @.str.2, i64 0, i64 0), i32 %59)
  br label %61

61:                                               ; preds = %51, %56
  %62 = add nuw nsw i64 %52, 1
  %63 = icmp eq i64 %62, %40
  br i1 %63, label %64, label %51, !llvm.loop !13

64:                                               ; preds = %61
  %65 = add nuw nsw i64 %39, 1
  %66 = load i32, i32* %2, align 4, !tbaa !5
  %67 = sext i32 %66 to i64
  %68 = icmp slt i64 %65, %67
  %69 = add nuw nsw i64 %40, 1
  br i1 %68, label %38, label %41, !llvm.loop !14

70:                                               ; preds = %49, %93
  %71 = phi i32 [ %45, %49 ], [ %94, %93 ]
  %72 = phi i32 [ %44, %49 ], [ %95, %93 ]
  %73 = phi i64 [ %50, %49 ], [ %96, %93 ]
  %74 = icmp sgt i32 %71, 0
  br i1 %74, label %75, label %93

75:                                               ; preds = %70
  %76 = zext i32 %71 to i64
  br label %77

77:                                               ; preds = %88, %75
  %78 = phi i32 [ %72, %75 ], [ %90, %88 ]
  %79 = phi i64 [ %76, %75 ], [ %80, %88 ]
  %80 = add nsw i64 %79, -1
  %81 = sub nsw i64 %73, %80
  %82 = sext i32 %78 to i64
  %83 = icmp slt i64 %81, %82
  br i1 %83, label %84, label %88

84:                                               ; preds = %77
  %85 = getelementptr inbounds [100 x [100 x i32]], [100 x [100 x i32]]* %3, i64 0, i64 %81, i64 %80
  %86 = load i32, i32* %85, align 4, !tbaa !5
  %87 = call i32 (i8*, ...) @printf(i8* nonnull dereferenceable(1) getelementptr inbounds ([4 x i8], [4 x i8]* @.str.2, i64 0, i64 0), i32 %86)
  br label %88

88:                                               ; preds = %77, %84
  %89 = icmp sgt i64 %79, 1
  %90 = load i32, i32* %1, align 4, !tbaa !5
  br i1 %89, label %77, label %91, !llvm.loop !15

91:                                               ; preds = %88
  %92 = load i32, i32* %2, align 4, !tbaa !5
  br label %93

93:                                               ; preds = %91, %70
  %94 = phi i32 [ %92, %91 ], [ %71, %70 ]
  %95 = phi i32 [ %90, %91 ], [ %72, %70 ]
  %96 = add nsw i64 %73, 1
  %97 = add i32 %95, -1
  %98 = add i32 %97, %94
  %99 = sext i32 %98 to i64
  %100 = icmp slt i64 %96, %99
  br i1 %100, label %70, label %101, !llvm.loop !16

101:                                              ; preds = %93, %43
  call void @llvm.lifetime.end.p0i8(i64 40000, i8* nonnull %7) #3
  call void @llvm.lifetime.end.p0i8(i64 4, i8* nonnull %5) #3
  call void @llvm.lifetime.end.p0i8(i64 4, i8* nonnull %4) #3
  ret i32 0
}

; Function Attrs: argmemonly mustprogress nofree nosync nounwind willreturn
declare void @llvm.lifetime.start.p0i8(i64 immarg, i8* nocapture) #1

; Function Attrs: nofree nounwind
declare noundef i32 @__isoc99_scanf(i8* nocapture noundef readonly, ...) local_unnamed_addr #2

; Function Attrs: nofree nounwind
declare noundef i32 @printf(i8* nocapture noundef readonly, ...) local_unnamed_addr #2

; Function Attrs: argmemonly mustprogress nofree nosync nounwind willreturn
declare void @llvm.lifetime.end.p0i8(i64 immarg, i8* nocapture) #1


!llvm.module.flags = !{!0, !1, !2, !3}
!llvm.ident = !{!4}

!0 = !{i32 1, !"wchar_size", i32 4}
!1 = !{i32 7, !"PIC Level", i32 2}
!2 = !{i32 7, !"PIE Level", i32 2}
!3 = !{i32 7, !"uwtable", i32 1}
!4 = !{!"clang version 13.0.0"}
!5 = !{!6, !6, i64 0}
!6 = !{!"int", !7, i64 0}
!7 = !{!"omnipotent char", !8, i64 0}
!8 = !{!"Simple C/C++ TBAA"}
!9 = distinct !{!9, !10}
!10 = !{!"llvm.loop.mustprogress"}
!11 = distinct !{!11, !10, !12}
!12 = !{!"llvm.loop.unswitch.partial.disable"}
!13 = distinct !{!13, !10}
!14 = distinct !{!14, !10}
!15 = distinct !{!15, !10}
!16 = distinct !{!16, !10}
